; Function Attrs: nounwind sspstrong uwtable
define internal void @sdhci_s3c_write(ptr noundef %opaque, i64 noundef %offset, i64 noundef %val, i32 noundef %size) #0 {
entry:
  switch i64 %offset, label %sw.default [
    i64 128, label %sw.epilog
    i64 132, label %sw.epilog
    i64 140, label %sw.epilog
  ]

sw.default:                                       ; preds = %entry
  tail call void @sdhci_write(ptr noundef %opaque, i64 noundef %offset, i64 noundef %val, i32 noundef %size)
  br label %sw.epilog

sw.epilog:                                        ; preds = %entry, %entry, %entry, %sw.default
  ret void
}